(dp0
S''
p1
(lp2
(dp3
S'pose'
p4
ccopy_reg
_reconstructor
p5
(cgeometry_msgs.msg._Pose
Pose
p6
c__builtin__
object
p7
Ntp8
Rp9
(lp10
g5
(cgeometry_msgs.msg._Point
Point
p11
g7
Ntp12
Rp13
(lp14
cnumpy.core.multiarray
scalar
p15
(cnumpy
dtype
p16
(S'f8'
p17
I0
I1
tp18
Rp19
(I3
S'<'
p20
NNNI-1
I-1
I0
tp21
bS'\xe0\xee\n1P&\xb0\xbf'
p22
tp23
Rp24
ag15
(g19
S"P'\xd9^\x84\x02\x83\xbf"
p25
tp26
Rp27
ag15
(g19
S'\x18,\x9a\x0fCY\xca?'
p28
tp29
Rp30
abag5
(cgeometry_msgs.msg._Quaternion
Quaternion
p31
g7
Ntp32
Rp33
(lp34
g15
(g19
S'\xec\xf9]e\xb8t\xe9?'
p35
tp36
Rp37
ag15
(g19
S'\xa5,-\xb7\x86\xba\x87?'
p38
tp39
Rp40
ag15
(g19
S'\xb3H\x8d^\x0bc\xe3\xbf'
p41
tp42
Rp43
ag15
(g19
S'\xde5\xdf\xa8\xb2\x0cd?'
p44
tp45
Rp46
ababsS'command'
p47
I1
sS'relative_to'
p48
I2
sas.